target datalayout = "e-m:e-p270:32:32-p271:32:32-p272:64:64-i64:64-i128:128-f80:128-n8:16:32:64-S128"
target triple = "x86_64-pc-linux-gnu"

%class.LogTagSet = type { ptr, i64, [5 x i32], [4 x i8], %class.LogOutputList, %class.LogDecorators, ptr }
%class.LogOutputList = type <{ [6 x ptr], i32, [4 x i8] }>
%class.LogDecorators = type { i32 }
%class.TimeStamp = type { i64 }
%class.stringStream = type <{ %class.outputStream, ptr, i64, i64, i8, [48 x i8], [7 x i8] }>
%class.outputStream = type { ptr, i32, i8, i32, i64, %class.TimeStamp, ptr, i64 }
%class.ttyLocker = type { i64 }
%"struct.Atomic::PlatformCmpxchg.39" = type { i8 }
%"struct.Atomic::XchgImpl" = type { i8 }
%"struct.Atomic::PlatformXchg" = type { i8 }
%"struct.Atomic::CmpxchgImpl.56" = type { i8 }

@_ZN13CompileBroker26_print_compilation_warningE = hidden global i32 0, align 4
@_ZN13CompileBroker24_should_compile_new_jobsE = hidden global i32 1, align 4
@_ZN13CompileBroker29_total_compiler_stopped_countE = hidden global i32 0, align 4
@_ZN13CompileBroker31_total_compiler_restarted_countE = hidden global i32 0, align 4
@xtty = external global ptr, align 8
@.str.16 = private unnamed_addr constant [3 x i8] c"%s\00", align 1
@UseCompiler = external global i8, align 1
@UseInterpreter = external global i8, align 1
@AlwaysCompileLoopMethods = external global i8, align 1
@.str.101 = private unnamed_addr constant [16 x i8] c"code_cache_full\00", align 1
@UseCodeCacheFlushing = external global i8, align 1
@.str.102 = private unnamed_addr constant [43 x i8] c"Code cache is full - disabling compilation\00", align 1
@_ZN16LogTagSetMappingILN6LogTag4typeE19ELS1_0ELS1_0ELS1_0ELS1_0ELS1_0EE7_tagsetE = linkonce_odr hidden global %class.LogTagSet zeroinitializer, comdat, align 8

; Function Attrs: mustprogress nounwind uwtable
define linkonce_odr hidden noundef i32 @_ZNK6Atomic12PlatformXchgILm4EEclIiEET_PVS3_S3_19atomic_memory_order(ptr noundef nonnull align 1 dereferenceable(1) %0, ptr noundef %1, i32 noundef %2, i32 noundef %3) #1 comdat align 2 {
  %5 = alloca ptr, align 8
  %6 = alloca ptr, align 8
  %7 = alloca i32, align 4
  %8 = alloca i32, align 4
  store ptr %0, ptr %5, align 8
  store ptr %1, ptr %6, align 8
  store i32 %2, ptr %7, align 4
  store i32 %3, ptr %8, align 4
  %9 = load i32, ptr %7, align 4
  %10 = load ptr, ptr %6, align 8
  %11 = call i32 asm sideeffect "xchgl ($2),$0", "=r,0,r,~{memory},~{dirflag},~{fpsr},~{flags}"(i32 %9, ptr %10) #10, !srcloc !47
  store i32 %11, ptr %7, align 4
  %12 = load i32, ptr %7, align 4
  ret i32 %12
}

; Function Attrs: mustprogress nounwind uwtable
define linkonce_odr hidden noundef i32 @_ZNK6Atomic15PlatformCmpxchgILm4EEclIiEET_PVS3_S3_S3_19atomic_memory_order(ptr noundef nonnull align 1 dereferenceable(1) %0, ptr noundef %1, i32 noundef %2, i32 noundef %3, i32 noundef %4) #1 comdat align 2 {
  %6 = alloca ptr, align 8
  %7 = alloca ptr, align 8
  %8 = alloca i32, align 4
  %9 = alloca i32, align 4
  %10 = alloca i32, align 4
  store ptr %0, ptr %6, align 8
  store ptr %1, ptr %7, align 8
  store i32 %2, ptr %8, align 4
  store i32 %3, ptr %9, align 4
  store i32 %4, ptr %10, align 4
  %11 = load i32, ptr %9, align 4
  %12 = load i32, ptr %8, align 4
  %13 = load ptr, ptr %7, align 8
  %14 = call i32 asm sideeffect "lock cmpxchgl $1,($3)", "={ax},r,{ax},r,~{cc},~{memory},~{dirflag},~{fpsr},~{flags}"(i32 %11, i32 %12, ptr %13) #10, !srcloc !39
  store i32 %14, ptr %9, align 4
  %15 = load i32, ptr %9, align 4
  ret i32 %15
}

; Function Attrs: mustprogress nounwind uwtable
define linkonce_odr hidden noundef i32 @_ZNK6Atomic8XchgImplIiivEclEPVii19atomic_memory_order(ptr noundef nonnull align 1 dereferenceable(1) %0, ptr noundef %1, i32 noundef %2, i32 noundef %3) #1 comdat align 2 {
  %5 = alloca ptr, align 8
  %6 = alloca ptr, align 8
  %7 = alloca i32, align 4
  %8 = alloca i32, align 4
  %9 = alloca %"struct.Atomic::PlatformXchg", align 1
  store ptr %0, ptr %5, align 8
  store ptr %1, ptr %6, align 8
  store i32 %2, ptr %7, align 4
  store i32 %3, ptr %8, align 4
  %10 = load ptr, ptr %6, align 8
  %11 = load i32, ptr %7, align 4
  %12 = load i32, ptr %8, align 4
  %13 = call noundef i32 @_ZNK6Atomic12PlatformXchgILm4EEclIiEET_PVS3_S3_19atomic_memory_order(ptr noundef nonnull align 1 dereferenceable(1) %9, ptr noundef %10, i32 noundef %11, i32 noundef %12)
  ret i32 %13
}

; Function Attrs: mustprogress nounwind uwtable
define linkonce_odr hidden noundef zeroext i1 @_ZNK13LogOutputList8is_levelEN8LogLevel4typeE(ptr noundef nonnull align 8 dereferenceable(52) %0, i32 noundef %1) #1 comdat align 2 {
  %3 = alloca ptr, align 8
  %4 = alloca i32, align 4
  store ptr %0, ptr %3, align 8
  store i32 %1, ptr %4, align 4
  %5 = load ptr, ptr %3, align 8
  %6 = getelementptr inbounds %class.LogOutputList, ptr %5, i32 0, i32 0
  %7 = load i32, ptr %4, align 4
  %8 = zext i32 %7 to i64
  %9 = getelementptr inbounds [6 x ptr], ptr %6, i64 0, i64 %8
  %10 = load volatile ptr, ptr %9, align 8
  %11 = icmp ne ptr %10, null
  ret i1 %11
}

; Function Attrs: mustprogress nounwind uwtable
define linkonce_odr hidden noundef i32 @_ZNK6Atomic11CmpxchgImplIiiivEclEPViii19atomic_memory_order(ptr noundef nonnull align 1 dereferenceable(1) %0, ptr noundef %1, i32 noundef %2, i32 noundef %3, i32 noundef %4) #1 comdat align 2 {
  %6 = alloca ptr, align 8
  %7 = alloca ptr, align 8
  %8 = alloca i32, align 4
  %9 = alloca i32, align 4
  %10 = alloca i32, align 4
  %11 = alloca %"struct.Atomic::PlatformCmpxchg.39", align 1
  store ptr %0, ptr %6, align 8
  store ptr %1, ptr %7, align 8
  store i32 %2, ptr %8, align 4
  store i32 %3, ptr %9, align 4
  store i32 %4, ptr %10, align 4
  %12 = load ptr, ptr %7, align 8
  %13 = load i32, ptr %8, align 4
  %14 = load i32, ptr %9, align 4
  %15 = load i32, ptr %10, align 4
  %16 = call noundef i32 @_ZNK6Atomic15PlatformCmpxchgILm4EEclIiEET_PVS3_S3_S3_19atomic_memory_order(ptr noundef nonnull align 1 dereferenceable(1) %11, ptr noundef %12, i32 noundef %13, i32 noundef %14, i32 noundef %15)
  ret i32 %16
}

; Function Attrs: mustprogress nounwind uwtable
define linkonce_odr hidden noundef i32 @_ZN6Atomic4xchgIiiEET_PVS1_T0_19atomic_memory_order(ptr noundef %0, i32 noundef %1, i32 noundef %2) #1 comdat align 2 {
  %4 = alloca ptr, align 8
  %5 = alloca i32, align 4
  %6 = alloca i32, align 4
  %7 = alloca %"struct.Atomic::XchgImpl", align 1
  store ptr %0, ptr %4, align 8
  store i32 %1, ptr %5, align 4
  store i32 %2, ptr %6, align 4
  %8 = load ptr, ptr %4, align 8
  %9 = load i32, ptr %5, align 4
  %10 = load i32, ptr %6, align 4
  %11 = call noundef i32 @_ZNK6Atomic8XchgImplIiivEclEPVii19atomic_memory_order(ptr noundef nonnull align 1 dereferenceable(1) %7, ptr noundef %8, i32 noundef %9, i32 noundef %10)
  ret i32 %11
}

; Function Attrs: mustprogress nounwind uwtable
define linkonce_odr hidden noundef zeroext i1 @_ZNK9LogTagSet8is_levelEN8LogLevel4typeE(ptr noundef nonnull align 8 dereferenceable(112) %0, i32 noundef %1) #1 comdat align 2 {
  %3 = alloca ptr, align 8
  %4 = alloca i32, align 4
  store ptr %0, ptr %3, align 8
  store i32 %1, ptr %4, align 4
  %5 = load ptr, ptr %3, align 8
  %6 = getelementptr inbounds %class.LogTagSet, ptr %5, i32 0, i32 4
  %7 = load i32, ptr %4, align 4
  %8 = call noundef zeroext i1 @_ZNK13LogOutputList8is_levelEN8LogLevel4typeE(ptr noundef nonnull align 8 dereferenceable(52) %6, i32 noundef %7)
  ret i1 %8
}

; Function Attrs: mustprogress nounwind uwtable
define linkonce_odr hidden noundef nonnull align 8 dereferenceable(112) ptr @_ZN16LogTagSetMappingILN6LogTag4typeE19ELS1_0ELS1_0ELS1_0ELS1_0ELS1_0EE6tagsetEv() #1 comdat align 2 {
  ret ptr @_ZN16LogTagSetMappingILN6LogTag4typeE19ELS1_0ELS1_0ELS1_0ELS1_0ELS1_0EE7_tagsetE
}

; Function Attrs: mustprogress nounwind uwtable
define linkonce_odr hidden noundef i32 @_ZN6Atomic7cmpxchgIiiiEET_PVS1_T0_T1_19atomic_memory_order(ptr noundef %0, i32 noundef %1, i32 noundef %2, i32 noundef %3) #1 comdat align 2 {
  %5 = alloca ptr, align 8
  %6 = alloca i32, align 4
  %7 = alloca i32, align 4
  %8 = alloca i32, align 4
  %9 = alloca %"struct.Atomic::CmpxchgImpl.56", align 1
  store ptr %0, ptr %5, align 8
  store i32 %1, ptr %6, align 4
  store i32 %2, ptr %7, align 4
  store i32 %3, ptr %8, align 4
  %10 = load ptr, ptr %5, align 8
  %11 = load i32, ptr %6, align 4
  %12 = load i32, ptr %7, align 4
  %13 = load i32, ptr %8, align 4
  %14 = call noundef i32 @_ZNK6Atomic11CmpxchgImplIiiivEclEPViii19atomic_memory_order(ptr noundef nonnull align 1 dereferenceable(1) %9, ptr noundef %10, i32 noundef %11, i32 noundef %12, i32 noundef %13)
  ret i32 %14
}

; Function Attrs: mustprogress nounwind uwtable
define linkonce_odr hidden noundef zeroext i1 @_ZN13CompileBroker29should_print_compiler_warningEv() #1 comdat align 2 {
  %1 = alloca i32, align 4
  %2 = call noundef i32 @_ZN6Atomic7cmpxchgIiiiEET_PVS1_T0_T1_19atomic_memory_order(ptr noundef @_ZN13CompileBroker26_print_compilation_warningE, i32 noundef 0, i32 noundef 1, i32 noundef 8)
  store i32 %2, ptr %1, align 4
  %3 = load i32, ptr %1, align 4
  %4 = icmp eq i32 %3, 0
  ret i1 %4
}

; Function Attrs: mustprogress nounwind uwtable
define linkonce_odr hidden void @_ZN13CompileBroker27disable_compilation_foreverEv() #1 comdat align 2 {
  store i8 0, ptr @UseCompiler, align 1
  store i8 0, ptr @AlwaysCompileLoopMethods, align 1
  %1 = call noundef i32 @_ZN6Atomic4xchgIiiEET_PVS1_T0_19atomic_memory_order(ptr noundef @_ZN13CompileBroker24_should_compile_new_jobsE, i32 noundef 2, i32 noundef 8)
  ret void
}

; Function Attrs: mustprogress nounwind uwtable
define linkonce_odr hidden noundef zeroext i1 @_ZN7LogImplILN6LogTag4typeE19ELS1_0ELS1_0ELS1_0ELS1_0ELS1_0EE8is_levelEN8LogLevel4typeE(i32 noundef %0) #1 comdat align 2 {
  %2 = alloca i32, align 4
  store i32 %0, ptr %2, align 4
  %3 = call noundef nonnull align 8 dereferenceable(112) ptr @_ZN16LogTagSetMappingILN6LogTag4typeE19ELS1_0ELS1_0ELS1_0ELS1_0ELS1_0EE6tagsetEv()
  %4 = load i32, ptr %2, align 4
  %5 = call noundef zeroext i1 @_ZNK9LogTagSet8is_levelEN8LogLevel4typeE(ptr noundef nonnull align 8 dereferenceable(112) %3, i32 noundef %4)
  ret i1 %5
}

; Function Attrs: mustprogress nounwind uwtable
define linkonce_odr hidden noundef zeroext i1 @_ZN13CompileBroker27set_should_compile_new_jobsEi(i32 noundef %0) #1 comdat align 2 {
  %2 = alloca i32, align 4
  %3 = alloca i32, align 4
  %4 = alloca i8, align 1
  store i32 %0, ptr %2, align 4
  %5 = load i32, ptr %2, align 4
  %6 = sub nsw i32 1, %5
  %7 = load i32, ptr %2, align 4
  %8 = call noundef i32 @_ZN6Atomic7cmpxchgIiiiEET_PVS1_T0_T1_19atomic_memory_order(ptr noundef @_ZN13CompileBroker24_should_compile_new_jobsE, i32 noundef %6, i32 noundef %7, i32 noundef 8)
  store i32 %8, ptr %3, align 4
  %9 = load i32, ptr %3, align 4
  %10 = load i32, ptr %2, align 4
  %11 = sub nsw i32 1, %10
  %12 = icmp eq i32 %9, %11
  %13 = zext i1 %12 to i8
  store i8 %13, ptr %4, align 1
  %14 = load i8, ptr %4, align 1
  %15 = trunc i8 %14 to i1
  br i1 %15, label %16, label %26

16:                                               ; preds = %1
  %17 = load i32, ptr %2, align 4
  %18 = icmp eq i32 %17, 1
  br i1 %18, label %19, label %22

19:                                               ; preds = %16
  %20 = load i32, ptr @_ZN13CompileBroker31_total_compiler_restarted_countE, align 4
  %21 = add i32 %20, 1
  store i32 %21, ptr @_ZN13CompileBroker31_total_compiler_restarted_countE, align 4
  br label %25

22:                                               ; preds = %16
  %23 = load i32, ptr @_ZN13CompileBroker29_total_compiler_stopped_countE, align 4
  %24 = add i32 %23, 1
  store i32 %24, ptr @_ZN13CompileBroker29_total_compiler_stopped_countE, align 4
  br label %25

25:                                               ; preds = %22, %19
  br label %26

26:                                               ; preds = %25, %1
  %27 = load i8, ptr %4, align 1
  %28 = trunc i8 %27 to i1
  ret i1 %28
}

; Function Attrs: mustprogress nounwind uwtable
define linkonce_odr hidden void @_ZN9ttyLockerD2Ev(ptr noundef nonnull align 8 dereferenceable(8) %0) unnamed_addr #1 comdat align 2 {
  %2 = alloca ptr, align 8
  store ptr %0, ptr %2, align 8
  %3 = load ptr, ptr %2, align 8
  %4 = getelementptr inbounds %class.ttyLocker, ptr %3, i32 0, i32 0
  %5 = load i64, ptr %4, align 8
  call void @_ZN9ttyLocker11release_ttyEl(i64 noundef %5)
  ret void
}

; Function Attrs: mustprogress nounwind uwtable
define linkonce_odr hidden noundef ptr @_ZNK12stringStream6freezeEv(ptr noundef nonnull align 8 dereferenceable(129) %0) #1 comdat align 2 {
  %2 = alloca ptr, align 8
  store ptr %0, ptr %2, align 8
  %3 = load ptr, ptr %2, align 8
  %4 = getelementptr inbounds %class.stringStream, ptr %3, i32 0, i32 1
  %5 = load ptr, ptr %4, align 8
  ret ptr %5
}

; Function Attrs: mustprogress nounwind uwtable
define linkonce_odr hidden void @_ZN9ttyLockerC2Ev(ptr noundef nonnull align 8 dereferenceable(8) %0) unnamed_addr #1 comdat align 2 {
  %2 = alloca ptr, align 8
  store ptr %0, ptr %2, align 8
  %3 = load ptr, ptr %2, align 8
  %4 = call noundef i64 @_ZN9ttyLocker8hold_ttyEv()
  %5 = getelementptr inbounds %class.ttyLocker, ptr %3, i32 0, i32 0
  store i64 %4, ptr %5, align 8
  ret void
}

; Function Attrs: mustprogress nounwind uwtable
define hidden void @_ZN13CompileBroker22handle_full_code_cacheE12CodeBlobType(i32 noundef %0) #1 align 2 {
  %2 = alloca i32, align 4
  %3 = alloca %class.stringStream, align 8
  %4 = alloca %class.ttyLocker, align 8
  store i32 %0, ptr %2, align 4
  store i8 1, ptr @UseInterpreter, align 1
  %5 = load i8, ptr @UseCompiler, align 1
  %6 = trunc i8 %5 to i1
  br i1 %6, label %10, label %7

7:                                                ; preds = %1
  %8 = load i8, ptr @AlwaysCompileLoopMethods, align 1
  %9 = trunc i8 %8 to i1
  br i1 %9, label %10, label %34

10:                                               ; preds = %7, %1
  %11 = load ptr, ptr @xtty, align 8
  %12 = icmp ne ptr %11, null
  br i1 %12, label %13, label %19

13:                                               ; preds = %10
  call void @_ZN12stringStreamC1Em(ptr noundef nonnull align 8 dereferenceable(129) %3, i64 noundef 0)
  call void @_ZN9CodeCache9log_stateEP12outputStream(ptr noundef %3)
  call void @_ZN9ttyLockerC2Ev(ptr noundef nonnull align 8 dereferenceable(8) %4)
  %14 = load ptr, ptr @xtty, align 8
  call void (ptr, ptr, ...) @_ZN9xmlStream10begin_elemEPKcz(ptr noundef nonnull align 8 dereferenceable(152) %14, ptr noundef @.str.101)
  %15 = load ptr, ptr @xtty, align 8
  %16 = call noundef ptr @_ZNK12stringStream6freezeEv(ptr noundef nonnull align 8 dereferenceable(129) %3)
  call void (ptr, ptr, ...) @_ZN12outputStream5printEPKcz(ptr noundef nonnull align 8 dereferenceable(56) %15, ptr noundef @.str.16, ptr noundef %16)
  %17 = load ptr, ptr @xtty, align 8
  call void @_ZN9xmlStream5stampEv(ptr noundef nonnull align 8 dereferenceable(152) %17)
  %18 = load ptr, ptr @xtty, align 8
  call void @_ZN9xmlStream8end_elemEv(ptr noundef nonnull align 8 dereferenceable(152) %18)
  call void @_ZN9ttyLockerD2Ev(ptr noundef nonnull align 8 dereferenceable(8) %4) #10
  call void @_ZN12stringStreamD1Ev(ptr noundef nonnull align 8 dereferenceable(129) %3) #10
  br label %19

19:                                               ; preds = %13, %10
  %20 = load i8, ptr @UseCodeCacheFlushing, align 1
  %21 = trunc i8 %20 to i1
  br i1 %21, label %22, label %30

22:                                               ; preds = %19
  %23 = call noundef zeroext i1 @_ZN13CompileBroker27set_should_compile_new_jobsEi(i32 noundef 0)
  br i1 %23, label %24, label %29

24:                                               ; preds = %22
  %25 = call noundef zeroext i1 @_ZN7LogImplILN6LogTag4typeE19ELS1_0ELS1_0ELS1_0ELS1_0ELS1_0EE8is_levelEN8LogLevel4typeE(i32 noundef 3)
  br i1 %25, label %27, label %26

26:                                               ; preds = %24
  br label %28

27:                                               ; preds = %24
  call void (ptr, ...) @_ZN7LogImplILN6LogTag4typeE19ELS1_0ELS1_0ELS1_0ELS1_0ELS1_0EE5writeILN8LogLevel4typeE3EEEvPKcz(ptr noundef @.str.102)
  br label %28

28:                                               ; preds = %27, %26
  br label %29

29:                                               ; preds = %28, %22
  br label %31

30:                                               ; preds = %19
  call void @_ZN13CompileBroker27disable_compilation_foreverEv()
  br label %31

31:                                               ; preds = %30, %29
  %32 = load i32, ptr %2, align 4
  %33 = call noundef zeroext i1 @_ZN13CompileBroker29should_print_compiler_warningEv()
  call void @_ZN9CodeCache19report_codemem_fullE12CodeBlobTypeb(i32 noundef %32, i1 noundef zeroext %33)
  br label %34

34:                                               ; preds = %31, %7
  ret void
}