; Function Attrs: mustprogress nounwind uwtable
define hidden void @_ZN13CompileBroker22handle_full_code_cacheE12CodeBlobType(i32 noundef %0) local_unnamed_addr #0 align 2 {
  %2 = alloca %class.stringStream, align 8
  store i8 1, ptr @UseInterpreter, align 1
  %3 = load i8, ptr @UseCompiler, align 1
  %4 = trunc i8 %3 to i1
  br i1 %4, label %8, label %5

5:                                                ; preds = %1
  %6 = load i8, ptr @AlwaysCompileLoopMethods, align 1
  %7 = trunc i8 %6 to i1
  br i1 %7, label %8, label %33

8:                                                ; preds = %5, %1
  %9 = load ptr, ptr @xtty, align 8
  %.not = icmp eq ptr %9, null
  br i1 %.not, label %18, label %10

10:                                               ; preds = %8
  call void @_ZN12stringStreamC1Em(ptr noundef nonnull align 8 dereferenceable(129) %2, i64 noundef 0) #20
  call void @_ZN9CodeCache9log_stateEP12outputStream(ptr noundef nonnull %2) #20
  %11 = call noundef i64 @_ZN9ttyLocker8hold_ttyEv() #20
  %12 = load ptr, ptr @xtty, align 8
  call void (ptr, ptr, ...) @_ZN9xmlStream10begin_elemEPKcz(ptr noundef nonnull align 8 dereferenceable(152) %12, ptr noundef nonnull @.str.101) #20
  %13 = load ptr, ptr @xtty, align 8
  %14 = getelementptr inbounds i8, ptr %2, i64 56
  %15 = load ptr, ptr %14, align 8
  call void (ptr, ptr, ...) @_ZN12outputStream5printEPKcz(ptr noundef nonnull align 8 dereferenceable(56) %13, ptr noundef nonnull @.str.16, ptr noundef %15) #20
  %16 = load ptr, ptr @xtty, align 8
  call void @_ZN9xmlStream5stampEv(ptr noundef nonnull align 8 dereferenceable(152) %16) #20
  %17 = load ptr, ptr @xtty, align 8
  call void @_ZN9xmlStream8end_elemEv(ptr noundef nonnull align 8 dereferenceable(152) %17) #20
  call void @_ZN9ttyLocker11release_ttyEl(i64 noundef %11) #20
  call void @_ZN12stringStreamD1Ev(ptr noundef nonnull align 8 dereferenceable(129) %2) #20
  br label %18

18:                                               ; preds = %10, %8
  %19 = load i8, ptr @UseCodeCacheFlushing, align 1
  %20 = trunc i8 %19 to i1
  br i1 %20, label %21, label %29

21:                                               ; preds = %18
  %22 = call noundef i32 asm sideeffect "lock cmpxchgl $1,($3)", "={ax},r,{ax},r,~{cc},~{memory},~{dirflag},~{fpsr},~{flags}"(i32 0, i32 1, ptr nonnull @_ZN13CompileBroker24_should_compile_new_jobsE) #20, !srcloc !6
  %23 = icmp eq i32 %22, 1
  br i1 %23, label %24, label %_ZN13CompileBroker27set_should_compile_new_jobsEi.exit

24:                                               ; preds = %21
  %25 = load i32, ptr @_ZN13CompileBroker29_total_compiler_stopped_countE, align 4
  %26 = add i32 %25, 1
  store i32 %26, ptr @_ZN13CompileBroker29_total_compiler_stopped_countE, align 4
  %27 = load volatile ptr, ptr getelementptr inbounds (i8, ptr @_ZN16LogTagSetMappingILN6LogTag4typeE19ELS1_0ELS1_0ELS1_0ELS1_0ELS1_0EE7_tagsetE, i64 64), align 8
  %.not1 = icmp eq ptr %27, null
  br i1 %.not1, label %_ZN13CompileBroker27set_should_compile_new_jobsEi.exit, label %28

28:                                               ; preds = %24
  call void (ptr, ...) @_ZN7LogImplILN6LogTag4typeE19ELS1_0ELS1_0ELS1_0ELS1_0ELS1_0EE5writeILN8LogLevel4typeE3EEEvPKcz(ptr noundef nonnull @.str.102)
  br label %_ZN13CompileBroker27set_should_compile_new_jobsEi.exit

29:                                               ; preds = %18
  store i8 0, ptr @UseCompiler, align 1
  store i8 0, ptr @AlwaysCompileLoopMethods, align 1
  %30 = call noundef i32 asm sideeffect "xchgl ($2),$0", "=r,0,r,~{memory},~{dirflag},~{fpsr},~{flags}"(i32 2, ptr nonnull @_ZN13CompileBroker24_should_compile_new_jobsE) #20, !srcloc !38
  br label %_ZN13CompileBroker27set_should_compile_new_jobsEi.exit

_ZN13CompileBroker27set_should_compile_new_jobsEi.exit: ; preds = %21, %24, %28, %29
  %31 = call noundef i32 asm sideeffect "lock cmpxchgl $1,($3)", "={ax},r,{ax},r,~{cc},~{memory},~{dirflag},~{fpsr},~{flags}"(i32 1, i32 0, ptr nonnull @_ZN13CompileBroker26_print_compilation_warningE) #20, !srcloc !6
  %32 = icmp eq i32 %31, 0
  call void @_ZN9CodeCache19report_codemem_fullE12CodeBlobTypeb(i32 noundef %0, i1 noundef zeroext %32) #20
  br label %33

33:                                               ; preds = %_ZN13CompileBroker27set_should_compile_new_jobsEi.exit, %5
  ret void
}